; Function Attrs: mustprogress uwtable
define void @_ZN18InterfaceTreeModel16getColumnContentEiii(ptr dead_on_unwind noalias nocapture writable writeonly sret(%class.QVariant) align 8 %0, ptr noundef nonnull align 8 dereferenceable(32) %1, i32 noundef %2, i32 noundef %3, i32 noundef %4) local_unnamed_addr #2 align 2 {
  %6 = alloca %class.QModelIndex, align 8
  %7 = alloca %class.QModelIndex, align 8
  store i32 -1, ptr %7, align 8
  %8 = getelementptr inbounds i8, ptr %7, i64 4
  store i32 -1, ptr %8, align 4
  %9 = getelementptr inbounds i8, ptr %7, i64 8
  call void @llvm.memset.p0.i64(ptr noundef nonnull align 8 dereferenceable(16) %9, i8 0, i64 16, i1 false)
  %10 = load ptr, ptr %1, align 8
  %11 = getelementptr inbounds i8, ptr %10, i64 96
  %12 = load ptr, ptr %11, align 8
  call void %12(ptr dead_on_unwind nonnull writable sret(%class.QModelIndex) align 8 %6, ptr noundef nonnull align 8 dereferenceable(16) %1, i32 noundef %2, i32 noundef %3, ptr noundef nonnull align 8 dereferenceable(24) %7)
  call void @llvm.memset.p0.i64(ptr noundef nonnull align 8 dereferenceable(24) %0, i8 0, i64 24, i1 false), !alias.scope !10
  %13 = getelementptr inbounds i8, ptr %0, i64 24
  store i64 2, ptr %13, align 8, !alias.scope !10
  ret void
}